target datalayout = "e-m:e-p270:32:32-p271:32:32-p272:64:64-i64:64-i128:128-f80:128-n8:16:32:64-S128"
target triple = "x86_64-pc-linux-gnu"

%struct._object = type { %union.anon, ptr }
%union.anon = type { i64 }
%struct.fileio = type { %struct._object, i32, i8, i8, ptr, ptr, ptr }

@PyExc_ValueError = external global ptr, align 8
@.str.35 = private unnamed_addr constant [29 x i8] c"I/O operation on closed file\00", align 1

; Function Attrs: nounwind uwtable
define internal ptr @err_closed() #0 {
  %1 = load ptr, ptr @PyExc_ValueError, align 8, !tbaa !4
  call void @PyErr_SetString(ptr noundef %1, ptr noundef @.str.35)
  ret ptr null
}

; Function Attrs: nounwind uwtable
define internal ptr @_io_FileIO_readable_impl(ptr noundef %0) #0 {
  %2 = alloca ptr, align 8
  %3 = alloca ptr, align 8
  store ptr %0, ptr %3, align 8, !tbaa !15
  %4 = load ptr, ptr %3, align 8, !tbaa !15
  %5 = getelementptr inbounds nuw %struct.fileio, ptr %4, i32 0, i32 1
  %6 = load i32, ptr %5, align 8, !tbaa !9
  %7 = icmp slt i32 %6, 0
  br i1 %7, label %8, label %10

8:                                                ; preds = %1
  %9 = call ptr @err_closed()
  store ptr %9, ptr %2, align 8
  br label %19

10:                                               ; preds = %1
  %11 = load ptr, ptr %3, align 8, !tbaa !15
  %12 = getelementptr inbounds nuw %struct.fileio, ptr %11, i32 0, i32 2
  %13 = load i8, ptr %12, align 4
  %14 = lshr i8 %13, 1
  %15 = and i8 %14, 1
  %16 = zext i8 %15 to i32
  %17 = zext i32 %16 to i64
  %18 = call ptr @PyBool_FromLong(i64 noundef %17)
  store ptr %18, ptr %2, align 8
  br label %19

19:                                               ; preds = %10, %8
  %20 = load ptr, ptr %2, align 8
  ret ptr %20
}

; Function Attrs: nounwind uwtable
define internal ptr @_io_FileIO_readable(ptr noundef %0, ptr noundef %1) #0 {
  %3 = alloca ptr, align 8
  %4 = alloca ptr, align 8
  store ptr %0, ptr %3, align 8, !tbaa !4
  store ptr %1, ptr %4, align 8, !tbaa !4
  %5 = load ptr, ptr %3, align 8, !tbaa !4
  %6 = call ptr @_io_FileIO_readable_impl(ptr noundef %5)
  ret ptr %6
}